(lp1
ccopy_reg
_reconstructor
p2
(csklearn.linear_model.stochastic_gradient
SGDRegressor
p3
c__builtin__
object
p4
NtRp5
(dp6
S'warm_start'
p7
I00
sS'loss'
p8
S'squared_loss'
p9
sS'C'
F1
sS'shuffle'
p10
I01
sS'verbose'
p11
I0
sS'fit_intercept'
p12
I01
sS'epsilon'
p13
F0.10000000000000001
sS'learning_rate'
p14
S'constant'
p15
sS'n_iter'
p16
I5
sS'penalty'
p17
S'l2'
p18
sS'power_t'
p19
F0.25
sS'alpha'
p20
F0.0001
sS'random_state'
p21
NsS'_sklearn_version'
p22
S'0.18'
p23
sS'eta0'
p24
F0.01
sS'l1_ratio'
p25
F0.14999999999999999
sS't_'
p26
F2435
sS'coef_'
p27
cnumpy.core.multiarray
_reconstruct
p28
(cnumpy
ndarray
p29
(I0
tS'b'
tRp30
(I1
(L3L
tcnumpy
dtype
p31
(S'f8'
I0
I1
tRp32
(I3
S'<'
NNNI-1
I-1
I0
tbI00
S"E\xa0%\x11B\x00\xc7\xbf\x0f\x9f\x80f99\xc6\xbf\x9e&5P\xffj'@"
tbsS'intercept_'
p33
g28
(g29
(I0
tS'b'
tRp34
(I1
(L1L
tg32
I00
S'\x1e\xb7G\xea=\x9b6@'
tbsS'average'
p35
I00
sbag2
(g3
g4
NtRp36
(dp37
g7
I00
sg8
g9
sS'C'
F1
sg10
I01
sg11
I0
sg12
I01
sg13
F0.10000000000000001
sg14
g15
sg16
I5
sg17
g18
sg19
F0.25
sg20
F0.0001
sg21
Nsg22
g23
sg24
F0.01
sg25
F0.14999999999999999
sg26
F2501
sg27
g28
(g29
(I0
tS'b'
tRp38
(I1
(L3L
tg32
I00
S"\x1b\xc7(\xdb\xc3\x15\xc4\xbf\xcd\xdd\xcc\xaf\xb7\x87\xbd\xbfO\xb2kF\xe1n'@"
tbsg33
g28
(g29
(I0
tS'b'
tRp39
(I1
(L1L
tg32
I00
S'4X^SS\x876@'
tbsg35
I00
sbag2
(g3
g4
NtRp40
(dp41
g7
I00
sg8
g9
sS'C'
F1
sg10
I01
sg11
I0
sg12
I01
sg13
F0.10000000000000001
sg14
g15
sg16
I5
sg17
g18
sg19
F0.25
sg20
F0.0001
sg21
Nsg22
g23
sg24
F0.01
sg25
F0.14999999999999999
sg26
F2449
sg27
g28
(g29
(I0
tS'b'
tRp42
(I1
(L3L
tg32
I00
S"\xcb\x8b.\xc0\xf8\xbf\xb4\xbf~\x95Z\x9a\xe5\xae\xc0\xbf\xde#':Zt'@"
tbsg33
g28
(g29
(I0
tS'b'
tRp43
(I1
(L1L
tg32
I00
S'\xa2\xad`8D\x9a6@'
tbsg35
I00
sba.